target datalayout = "e-m:e-p270:32:32-p271:32:32-p272:64:64-i64:64-i128:128-f80:128-n8:16:32:64-S128"
target triple = "x86_64-pc-linux-gnu"

; Function Attrs: alwaysinline nounwind uwtable
define internal void @bytestream_put_byte(ptr noundef %0, i32 noundef %1) #1 {
  %3 = alloca ptr, align 8
  %4 = alloca i32, align 4
  store ptr %0, ptr %3, align 8, !tbaa !4
  store i32 %1, ptr %4, align 4, !tbaa !10
  br label %5

5:                                                ; preds = %2
  %6 = load i32, ptr %4, align 4, !tbaa !10
  %7 = trunc i32 %6 to i8
  %8 = load ptr, ptr %3, align 8, !tbaa !4
  %9 = load ptr, ptr %8, align 8, !tbaa !12
  %10 = getelementptr inbounds i8, ptr %9, i64 0
  store i8 %7, ptr %10, align 1, !tbaa !14
  br label %11

11:                                               ; preds = %5
  %12 = load ptr, ptr %3, align 8, !tbaa !4
  %13 = load ptr, ptr %12, align 8, !tbaa !12
  %14 = getelementptr inbounds i8, ptr %13, i64 1
  store ptr %14, ptr %12, align 8, !tbaa !12
  ret void
}

; Function Attrs: nounwind uwtable
define void @ff_amf_write_bool(ptr noundef %0, i32 noundef %1) #0 {
  %3 = alloca ptr, align 8
  %4 = alloca i32, align 4
  store ptr %0, ptr %3, align 8, !tbaa !4
  store i32 %1, ptr %4, align 4, !tbaa !10
  %5 = load ptr, ptr %3, align 8, !tbaa !4
  call void @bytestream_put_byte(ptr noundef %5, i32 noundef 1)
  %6 = load ptr, ptr %3, align 8, !tbaa !4
  %7 = load i32, ptr %4, align 4, !tbaa !10
  call void @bytestream_put_byte(ptr noundef %6, i32 noundef %7)
  ret void
}