; Function Attrs: mustprogress nofree norecurse nosync nounwind willreturn memory(write, argmem: readwrite, inaccessiblemem: none) uwtable
define void @ff_amf_write_bool(ptr noundef captures(none) %0, i32 noundef %1) local_unnamed_addr #0 {
  %3 = load ptr, ptr %0, align 8, !tbaa !4
  store i8 1, ptr %3, align 1, !tbaa !9
  %4 = load ptr, ptr %0, align 8, !tbaa !4
  %5 = getelementptr inbounds nuw i8, ptr %4, i64 1
  store ptr %5, ptr %0, align 8, !tbaa !4
  %6 = trunc i32 %1 to i8
  store i8 %6, ptr %5, align 1, !tbaa !9
  %7 = load ptr, ptr %0, align 8, !tbaa !4
  %8 = getelementptr inbounds nuw i8, ptr %7, i64 1
  store ptr %8, ptr %0, align 8, !tbaa !4
  ret void
}